target datalayout = "e-m:e-p270:32:32-p271:32:32-p272:64:64-i64:64-i128:128-f80:128-n8:16:32:64-S128"
target triple = "x86_64-pc-linux-gnu"

%"class.cv::Mat" = type { i32, i32, i32, i32, ptr, ptr, ptr, ptr, ptr, ptr, %"struct.cv::MatSize", %"struct.cv::MatStep" }
%"struct.cv::MatSize" = type { ptr }
%"struct.cv::MatStep" = type { ptr, [2 x i64] }
%"class.cv::MatExpr" = type { ptr, i32, %"class.cv::Mat", %"class.cv::Mat", %"class.cv::Mat", double, double, %"class.cv::Scalar_" }
%"class.cv::Scalar_" = type { %"class.cv::Vec" }
%"class.cv::Vec" = type { %"class.cv::Matx" }
%"class.cv::Matx" = type { [4 x double] }
%"class.cv::Size_" = type { i32, i32 }

; Function Attrs: inlinehint mustprogress nounwind uwtable
define linkonce_odr hidden noundef nonnull align 4 dereferenceable(4) ptr @_ZN2cv3Mat2atIfEERT_ii(ptr noundef nonnull align 8 dereferenceable(96) %0, i32 noundef %1, i32 noundef %2) #6 comdat align 2 {
  %4 = alloca ptr, align 8
  %5 = alloca i32, align 4
  %6 = alloca i32, align 4
  store ptr %0, ptr %4, align 8, !tbaa !3
  store i32 %1, ptr %5, align 4, !tbaa !8
  store i32 %2, ptr %6, align 4, !tbaa !8
  %7 = load ptr, ptr %4, align 8
  %8 = getelementptr inbounds nuw %"class.cv::Mat", ptr %7, i32 0, i32 4
  %9 = load ptr, ptr %8, align 8, !tbaa !25
  %10 = getelementptr inbounds nuw %"class.cv::Mat", ptr %7, i32 0, i32 11
  %11 = getelementptr inbounds nuw %"struct.cv::MatStep", ptr %10, i32 0, i32 0
  %12 = load ptr, ptr %11, align 8, !tbaa !26
  %13 = getelementptr inbounds i64, ptr %12, i64 0
  %14 = load i64, ptr %13, align 8, !tbaa !27
  %15 = load i32, ptr %5, align 4, !tbaa !8
  %16 = sext i32 %15 to i64
  %17 = mul i64 %14, %16
  %18 = getelementptr inbounds nuw i8, ptr %9, i64 %17
  %19 = load i32, ptr %6, align 4, !tbaa !8
  %20 = sext i32 %19 to i64
  %21 = getelementptr inbounds float, ptr %18, i64 %20
  ret ptr %21
}

; Function Attrs: inlinehint mustprogress uwtable
define linkonce_odr hidden void @_ZNK2cv7MatExprcvNS_3MatEEv(ptr dead_on_unwind noalias writable sret(%"class.cv::Mat") align 8 %0, ptr noundef nonnull align 8 dereferenceable(352) %1) #7 comdat align 2 personality ptr @__gxx_personality_v0 {
  %3 = alloca ptr, align 8
  %4 = alloca ptr, align 8
  %5 = alloca i1, align 1
  %6 = alloca ptr, align 8
  %7 = alloca i32, align 4
  store ptr %0, ptr %3, align 8
  store ptr %1, ptr %4, align 8, !tbaa !31
  %8 = load ptr, ptr %4, align 8
  store i1 false, ptr %5, align 1
  call void @_ZN2cv3MatC1Ev(ptr noundef nonnull align 8 dereferenceable(96) %0) #3
  %9 = getelementptr inbounds nuw %"class.cv::MatExpr", ptr %8, i32 0, i32 0
  %10 = load ptr, ptr %9, align 8, !tbaa !33
  %11 = load ptr, ptr %10, align 8, !tbaa !40
  %12 = getelementptr inbounds ptr, ptr %11, i64 3
  %13 = load ptr, ptr %12, align 8
  invoke void %13(ptr noundef nonnull align 8 dereferenceable(8) %10, ptr noundef nonnull align 8 dereferenceable(352) %8, ptr noundef nonnull align 8 dereferenceable(96) %0, i32 noundef -1)
          to label %14 unwind label %16

14:                                               ; preds = %2
  store i1 true, ptr %5, align 1
  %15 = load i1, ptr %5, align 1
  br i1 %15, label %21, label %20

16:                                               ; preds = %2
  %17 = landingpad { ptr, i32 }
          cleanup
  %18 = extractvalue { ptr, i32 } %17, 0
  store ptr %18, ptr %6, align 8
  %19 = extractvalue { ptr, i32 } %17, 1
  store i32 %19, ptr %7, align 4
  call void @_ZN2cv3MatD1Ev(ptr noundef nonnull align 8 dereferenceable(96) %0) #3
  br label %22

20:                                               ; preds = %14
  call void @_ZN2cv3MatD1Ev(ptr noundef nonnull align 8 dereferenceable(96) %0) #3
  br label %21

21:                                               ; preds = %20, %14
  ret void

22:                                               ; preds = %16
  %23 = load ptr, ptr %6, align 8
  %24 = load i32, ptr %7, align 4
  %25 = insertvalue { ptr, i32 } poison, ptr %23, 0
  %26 = insertvalue { ptr, i32 } %25, i32 %24, 1
  resume { ptr, i32 } %26
}

; Function Attrs: mustprogress uwtable
define hidden void @_ZN2cv12get_hann_winENS_5Size_IiEE(ptr dead_on_unwind noalias writable sret(%"class.cv::Mat") align 8 %0, i64 %1) #4 personality ptr @__gxx_personality_v0 {
  %3 = alloca ptr, align 8
  %4 = alloca %"class.cv::Size_", align 4
  %5 = alloca %"class.cv::Mat", align 8
  %6 = alloca %"class.cv::MatExpr", align 8
  %7 = alloca ptr, align 8
  %8 = alloca i32, align 4
  %9 = alloca %"class.cv::Mat", align 8
  %10 = alloca %"class.cv::MatExpr", align 8
  %11 = alloca i32, align 4
  %12 = alloca i32, align 4
  %13 = alloca i32, align 4
  %14 = alloca %"class.cv::MatExpr", align 8
  store ptr %0, ptr %3, align 8
  store i64 %1, ptr %4, align 4
  call void @llvm.lifetime.start.p0(i64 96, ptr %5) #3
  call void @llvm.lifetime.start.p0(i64 352, ptr %6) #3
  %15 = getelementptr inbounds nuw %"class.cv::Size_", ptr %4, i32 0, i32 1
  %16 = load i32, ptr %15, align 4, !tbaa !79
  call void @_ZN2cv3Mat4onesEiii(ptr dead_on_unwind writable sret(%"class.cv::MatExpr") align 8 %6, i32 noundef %16, i32 noundef 1, i32 noundef 5)
  invoke void @_ZNK2cv7MatExprcvNS_3MatEEv(ptr dead_on_unwind writable sret(%"class.cv::Mat") align 8 %5, ptr noundef nonnull align 8 dereferenceable(352) %6)
          to label %17 unwind label %34

17:                                               ; preds = %2
  call void @_ZN2cv7MatExprD2Ev(ptr noundef nonnull align 8 dereferenceable(352) %6) #3
  call void @llvm.lifetime.end.p0(i64 352, ptr %6) #3
  call void @llvm.lifetime.start.p0(i64 96, ptr %9) #3
  call void @llvm.lifetime.start.p0(i64 352, ptr %10) #3
  %18 = getelementptr inbounds nuw %"class.cv::Size_", ptr %4, i32 0, i32 0
  %19 = load i32, ptr %18, align 4, !tbaa !81
  invoke void @_ZN2cv3Mat4onesEiii(ptr dead_on_unwind writable sret(%"class.cv::MatExpr") align 8 %10, i32 noundef 1, i32 noundef %19, i32 noundef 5)
          to label %20 unwind label %38

20:                                               ; preds = %17
  invoke void @_ZNK2cv7MatExprcvNS_3MatEEv(ptr dead_on_unwind writable sret(%"class.cv::Mat") align 8 %9, ptr noundef nonnull align 8 dereferenceable(352) %10)
          to label %21 unwind label %42

21:                                               ; preds = %20
  call void @_ZN2cv7MatExprD2Ev(ptr noundef nonnull align 8 dereferenceable(352) %10) #3
  call void @llvm.lifetime.end.p0(i64 352, ptr %10) #3
  call void @llvm.lifetime.start.p0(i64 4, ptr %11) #3
  %22 = getelementptr inbounds nuw %"class.cv::Size_", ptr %4, i32 0, i32 1
  %23 = load i32, ptr %22, align 4, !tbaa !79
  %24 = sub nsw i32 %23, 1
  store i32 %24, ptr %11, align 4, !tbaa !8
  %25 = load i32, ptr %11, align 4, !tbaa !8
  %26 = icmp ne i32 %25, 0
  br i1 %26, label %27, label %69

27:                                               ; preds = %21
  call void @llvm.lifetime.start.p0(i64 4, ptr %12) #3
  store i32 0, ptr %12, align 4, !tbaa !8
  br label %28

28:                                               ; preds = %61, %27
  %29 = load i32, ptr %12, align 4, !tbaa !8
  %30 = getelementptr inbounds nuw %"class.cv::Mat", ptr %5, i32 0, i32 2
  %31 = load i32, ptr %30, align 8, !tbaa !10
  %32 = icmp slt i32 %29, %31
  br i1 %32, label %47, label %33

33:                                               ; preds = %28
  call void @llvm.lifetime.end.p0(i64 4, ptr %12) #3
  br label %68

34:                                               ; preds = %2
  %35 = landingpad { ptr, i32 }
          cleanup
  %36 = extractvalue { ptr, i32 } %35, 0
  store ptr %36, ptr %7, align 8
  %37 = extractvalue { ptr, i32 } %35, 1
  store i32 %37, ptr %8, align 4
  call void @_ZN2cv7MatExprD2Ev(ptr noundef nonnull align 8 dereferenceable(352) %6) #3
  call void @llvm.lifetime.end.p0(i64 352, ptr %6) #3
  br label %118

38:                                               ; preds = %17
  %39 = landingpad { ptr, i32 }
          cleanup
  %40 = extractvalue { ptr, i32 } %39, 0
  store ptr %40, ptr %7, align 8
  %41 = extractvalue { ptr, i32 } %39, 1
  store i32 %41, ptr %8, align 4
  br label %46

42:                                               ; preds = %20
  %43 = landingpad { ptr, i32 }
          cleanup
  %44 = extractvalue { ptr, i32 } %43, 0
  store ptr %44, ptr %7, align 8
  %45 = extractvalue { ptr, i32 } %43, 1
  store i32 %45, ptr %8, align 4
  call void @_ZN2cv7MatExprD2Ev(ptr noundef nonnull align 8 dereferenceable(352) %10) #3
  br label %46

46:                                               ; preds = %42, %38
  call void @llvm.lifetime.end.p0(i64 352, ptr %10) #3
  br label %117

47:                                               ; preds = %28
  %48 = load i32, ptr %12, align 4, !tbaa !8
  %49 = sitofp i32 %48 to double
  %50 = fmul double 0x401921FB54442D18, %49
  %51 = load i32, ptr %11, align 4, !tbaa !8
  %52 = sitofp i32 %51 to double
  %53 = fdiv double %50, %52
  %54 = call double @cos(double noundef %53) #3, !tbaa !8
  %55 = fsub double 1.000000e+00, %54
  %56 = fmul double 5.000000e-01, %55
  %57 = fptrunc double %56 to float
  %58 = load i32, ptr %12, align 4, !tbaa !8
  %59 = invoke noundef nonnull align 4 dereferenceable(4) ptr @_ZN2cv3Mat2atIfEERT_ii(ptr noundef nonnull align 8 dereferenceable(96) %5, i32 noundef %58, i32 noundef 0)
          to label %60 unwind label %64

60:                                               ; preds = %47
  store float %57, ptr %59, align 4, !tbaa !20
  br label %61

61:                                               ; preds = %60
  %62 = load i32, ptr %12, align 4, !tbaa !8
  %63 = add nsw i32 %62, 1
  store i32 %63, ptr %12, align 4, !tbaa !8
  br label %28, !llvm.loop !82

64:                                               ; preds = %47
  %65 = landingpad { ptr, i32 }
          cleanup
  %66 = extractvalue { ptr, i32 } %65, 0
  store ptr %66, ptr %7, align 8
  %67 = extractvalue { ptr, i32 } %65, 1
  store i32 %67, ptr %8, align 4
  call void @llvm.lifetime.end.p0(i64 4, ptr %12) #3
  br label %116

68:                                               ; preds = %33
  br label %69

69:                                               ; preds = %68, %21
  %70 = getelementptr inbounds nuw %"class.cv::Size_", ptr %4, i32 0, i32 0
  %71 = load i32, ptr %70, align 4, !tbaa !81
  %72 = sub nsw i32 %71, 1
  store i32 %72, ptr %11, align 4, !tbaa !8
  %73 = load i32, ptr %11, align 4, !tbaa !8
  %74 = icmp ne i32 %73, 0
  br i1 %74, label %75, label %104

75:                                               ; preds = %69
  call void @llvm.lifetime.start.p0(i64 4, ptr %13) #3
  store i32 0, ptr %13, align 4, !tbaa !8
  br label %76

76:                                               ; preds = %96, %75
  %77 = load i32, ptr %13, align 4, !tbaa !8
  %78 = getelementptr inbounds nuw %"class.cv::Mat", ptr %9, i32 0, i32 3
  %79 = load i32, ptr %78, align 4, !tbaa !19
  %80 = icmp slt i32 %77, %79
  br i1 %80, label %82, label %81

81:                                               ; preds = %76
  call void @llvm.lifetime.end.p0(i64 4, ptr %13) #3
  br label %103

82:                                               ; preds = %76
  %83 = load i32, ptr %13, align 4, !tbaa !8
  %84 = sitofp i32 %83 to double
  %85 = fmul double 0x401921FB54442D18, %84
  %86 = load i32, ptr %11, align 4, !tbaa !8
  %87 = sitofp i32 %86 to double
  %88 = fdiv double %85, %87
  %89 = call double @cos(double noundef %88) #3, !tbaa !8
  %90 = fsub double 1.000000e+00, %89
  %91 = fmul double 5.000000e-01, %90
  %92 = fptrunc double %91 to float
  %93 = load i32, ptr %13, align 4, !tbaa !8
  %94 = invoke noundef nonnull align 4 dereferenceable(4) ptr @_ZN2cv3Mat2atIfEERT_ii(ptr noundef nonnull align 8 dereferenceable(96) %9, i32 noundef 0, i32 noundef %93)
          to label %95 unwind label %99

95:                                               ; preds = %82
  store float %92, ptr %94, align 4, !tbaa !20
  br label %96

96:                                               ; preds = %95
  %97 = load i32, ptr %13, align 4, !tbaa !8
  %98 = add nsw i32 %97, 1
  store i32 %98, ptr %13, align 4, !tbaa !8
  br label %76, !llvm.loop !83

99:                                               ; preds = %82
  %100 = landingpad { ptr, i32 }
          cleanup
  %101 = extractvalue { ptr, i32 } %100, 0
  store ptr %101, ptr %7, align 8
  %102 = extractvalue { ptr, i32 } %100, 1
  store i32 %102, ptr %8, align 4
  call void @llvm.lifetime.end.p0(i64 4, ptr %13) #3
  br label %116

103:                                              ; preds = %81
  br label %104

104:                                              ; preds = %103, %69
  call void @llvm.lifetime.start.p0(i64 352, ptr %14) #3
  invoke void @_ZN2cvmlERKNS_3MatES2_(ptr dead_on_unwind writable sret(%"class.cv::MatExpr") align 8 %14, ptr noundef nonnull align 8 dereferenceable(96) %5, ptr noundef nonnull align 8 dereferenceable(96) %9)
          to label %105 unwind label %107

105:                                              ; preds = %104
  invoke void @_ZNK2cv7MatExprcvNS_3MatEEv(ptr dead_on_unwind writable sret(%"class.cv::Mat") align 8 %0, ptr noundef nonnull align 8 dereferenceable(352) %14)
          to label %106 unwind label %111

106:                                              ; preds = %105
  call void @_ZN2cv7MatExprD2Ev(ptr noundef nonnull align 8 dereferenceable(352) %14) #3
  call void @llvm.lifetime.end.p0(i64 352, ptr %14) #3
  call void @llvm.lifetime.end.p0(i64 4, ptr %11) #3
  call void @_ZN2cv3MatD1Ev(ptr noundef nonnull align 8 dereferenceable(96) %9) #3
  call void @llvm.lifetime.end.p0(i64 96, ptr %9) #3
  call void @_ZN2cv3MatD1Ev(ptr noundef nonnull align 8 dereferenceable(96) %5) #3
  call void @llvm.lifetime.end.p0(i64 96, ptr %5) #3
  ret void

107:                                              ; preds = %104
  %108 = landingpad { ptr, i32 }
          cleanup
  %109 = extractvalue { ptr, i32 } %108, 0
  store ptr %109, ptr %7, align 8
  %110 = extractvalue { ptr, i32 } %108, 1
  store i32 %110, ptr %8, align 4
  br label %115

111:                                              ; preds = %105
  %112 = landingpad { ptr, i32 }
          cleanup
  %113 = extractvalue { ptr, i32 } %112, 0
  store ptr %113, ptr %7, align 8
  %114 = extractvalue { ptr, i32 } %112, 1
  store i32 %114, ptr %8, align 4
  call void @_ZN2cv7MatExprD2Ev(ptr noundef nonnull align 8 dereferenceable(352) %14) #3
  br label %115

115:                                              ; preds = %111, %107
  call void @llvm.lifetime.end.p0(i64 352, ptr %14) #3
  br label %116

116:                                              ; preds = %115, %99, %64
  call void @llvm.lifetime.end.p0(i64 4, ptr %11) #3
  call void @_ZN2cv3MatD1Ev(ptr noundef nonnull align 8 dereferenceable(96) %9) #3
  br label %117

117:                                              ; preds = %116, %46
  call void @llvm.lifetime.end.p0(i64 96, ptr %9) #3
  call void @_ZN2cv3MatD1Ev(ptr noundef nonnull align 8 dereferenceable(96) %5) #3
  br label %118

118:                                              ; preds = %117, %34
  call void @llvm.lifetime.end.p0(i64 96, ptr %5) #3
  br label %119

119:                                              ; preds = %118
  %120 = load ptr, ptr %7, align 8
  %121 = load i32, ptr %8, align 4
  %122 = insertvalue { ptr, i32 } poison, ptr %120, 0
  %123 = insertvalue { ptr, i32 } %122, i32 %121, 1
  resume { ptr, i32 } %123
}