; Function Attrs: mustprogress uwtable
define hidden void @_ZN2cv12get_hann_winENS_5Size_IiEE(ptr dead_on_unwind noalias writable sret(%"class.cv::Mat") align 8 %0, i64 %1) local_unnamed_addr #3 personality ptr @__gxx_personality_v0 {
  %3 = alloca %"class.cv::Mat", align 8
  %4 = alloca %"class.cv::MatExpr", align 8
  %5 = alloca %"class.cv::Mat", align 8
  %6 = alloca %"class.cv::MatExpr", align 8
  %7 = alloca %"class.cv::MatExpr", align 8
  %.sroa.0.0.extract.trunc = trunc i64 %1 to i32
  %.sroa.3.0.extract.shift = lshr i64 %1, 32
  %.sroa.3.0.extract.trunc = trunc nuw i64 %.sroa.3.0.extract.shift to i32
  call void @llvm.lifetime.start.p0(i64 96, ptr nonnull %3) #21
  call void @llvm.lifetime.start.p0(i64 352, ptr nonnull %4) #21
  call void @_ZN2cv3Mat4onesEiii(ptr dead_on_unwind nonnull writable sret(%"class.cv::MatExpr") align 8 %4, i32 noundef %.sroa.3.0.extract.trunc, i32 noundef 1, i32 noundef 5)
  call void @_ZN2cv3MatC1Ev(ptr noundef nonnull align 8 dereferenceable(96) %3) #21
  %8 = load ptr, ptr %4, align 8, !tbaa !26, !noalias !98
  %9 = load ptr, ptr %8, align 8, !tbaa !36
  %10 = getelementptr inbounds nuw i8, ptr %9, i64 24
  %11 = load ptr, ptr %10, align 8
  invoke void %11(ptr noundef nonnull align 8 dereferenceable(8) %8, ptr noundef nonnull align 8 dereferenceable(352) %4, ptr noundef nonnull align 8 dereferenceable(96) %3, i32 noundef -1)
          to label %_ZNK2cv7MatExprcvNS_3MatEEv.exit unwind label %.body

.body:                                            ; preds = %2
  %12 = landingpad { ptr, i32 }
          cleanup
  call void @_ZN2cv3MatD1Ev(ptr noundef nonnull align 8 dereferenceable(96) %3) #21
  call void @_ZN2cv7MatExprD2Ev(ptr noundef nonnull align 8 dereferenceable(352) %4) #21
  call void @llvm.lifetime.end.p0(i64 352, ptr nonnull %4) #21
  br label %85

_ZNK2cv7MatExprcvNS_3MatEEv.exit:                 ; preds = %2
  %13 = getelementptr inbounds nuw i8, ptr %4, i64 208
  call void @_ZN2cv3MatD1Ev(ptr noundef nonnull align 8 dereferenceable(96) %13) #21
  %14 = getelementptr inbounds nuw i8, ptr %4, i64 112
  call void @_ZN2cv3MatD1Ev(ptr noundef nonnull align 8 dereferenceable(96) %14) #21
  %15 = getelementptr inbounds nuw i8, ptr %4, i64 16
  call void @_ZN2cv3MatD1Ev(ptr noundef nonnull align 8 dereferenceable(96) %15) #21
  call void @llvm.lifetime.end.p0(i64 352, ptr nonnull %4) #21
  call void @llvm.lifetime.start.p0(i64 96, ptr nonnull %5) #21
  call void @llvm.lifetime.start.p0(i64 352, ptr nonnull %6) #21
  invoke void @_ZN2cv3Mat4onesEiii(ptr dead_on_unwind nonnull writable sret(%"class.cv::MatExpr") align 8 %6, i32 noundef 1, i32 noundef %.sroa.0.0.extract.trunc, i32 noundef 5)
          to label %16 unwind label %35

16:                                               ; preds = %_ZNK2cv7MatExprcvNS_3MatEEv.exit
  call void @_ZN2cv3MatC1Ev(ptr noundef nonnull align 8 dereferenceable(96) %5) #21
  %17 = load ptr, ptr %6, align 8, !tbaa !26, !noalias !101
  %18 = load ptr, ptr %17, align 8, !tbaa !36
  %19 = getelementptr inbounds nuw i8, ptr %18, i64 24
  %20 = load ptr, ptr %19, align 8
  invoke void %20(ptr noundef nonnull align 8 dereferenceable(8) %17, ptr noundef nonnull align 8 dereferenceable(352) %6, ptr noundef nonnull align 8 dereferenceable(96) %5, i32 noundef -1)
          to label %_ZNK2cv7MatExprcvNS_3MatEEv.exit31 unwind label %.body29

.body29:                                          ; preds = %16
  %21 = landingpad { ptr, i32 }
          cleanup
  call void @_ZN2cv3MatD1Ev(ptr noundef nonnull align 8 dereferenceable(96) %5) #21
  call void @_ZN2cv7MatExprD2Ev(ptr noundef nonnull align 8 dereferenceable(352) %6) #21
  br label %37

_ZNK2cv7MatExprcvNS_3MatEEv.exit31:               ; preds = %16
  %22 = getelementptr inbounds nuw i8, ptr %6, i64 208
  call void @_ZN2cv3MatD1Ev(ptr noundef nonnull align 8 dereferenceable(96) %22) #21
  %23 = getelementptr inbounds nuw i8, ptr %6, i64 112
  call void @_ZN2cv3MatD1Ev(ptr noundef nonnull align 8 dereferenceable(96) %23) #21
  %24 = getelementptr inbounds nuw i8, ptr %6, i64 16
  call void @_ZN2cv3MatD1Ev(ptr noundef nonnull align 8 dereferenceable(96) %24) #21
  call void @llvm.lifetime.end.p0(i64 352, ptr nonnull %6) #21
  %25 = add nsw i32 %.sroa.3.0.extract.trunc, -1
  %.not = icmp eq i32 %25, 0
  br i1 %.not, label %.loopexit36, label %.preheader35

.preheader35:                                     ; preds = %_ZNK2cv7MatExprcvNS_3MatEEv.exit31
  %26 = getelementptr inbounds nuw i8, ptr %3, i64 8
  %27 = load i32, ptr %26, align 8, !tbaa !3
  %28 = icmp sgt i32 %27, 0
  br i1 %28, label %.lr.ph, label %.loopexit36

.lr.ph:                                           ; preds = %.preheader35
  %29 = sitofp i32 %25 to double
  %30 = getelementptr inbounds nuw i8, ptr %3, i64 16
  %31 = load ptr, ptr %30, align 8, !tbaa !17
  %32 = getelementptr inbounds nuw i8, ptr %3, i64 72
  %33 = load ptr, ptr %32, align 8, !tbaa !18
  %34 = load i64, ptr %33, align 8, !tbaa !19
  br label %38

35:                                               ; preds = %_ZNK2cv7MatExprcvNS_3MatEEv.exit
  %36 = landingpad { ptr, i32 }
          cleanup
  br label %37

37:                                               ; preds = %.body29, %35
  %.pn = phi { ptr, i32 } [ %21, %.body29 ], [ %36, %35 ]
  call void @llvm.lifetime.end.p0(i64 352, ptr nonnull %6) #21
  br label %84

38:                                               ; preds = %.lr.ph, %38
  %indvars.iv = phi i64 [ 0, %.lr.ph ], [ %indvars.iv.next, %38 ]
  %39 = trunc nuw nsw i64 %indvars.iv to i32
  %40 = uitofp nneg i32 %39 to double
  %41 = fmul double %40, 0x401921FB54442D18
  %42 = fdiv double %41, %29
  %43 = call double @cos(double noundef %42) #21, !tbaa !40
  %44 = fsub double 1.000000e+00, %43
  %45 = fmul double %44, 5.000000e-01
  %46 = fptrunc double %45 to float
  %47 = mul i64 %34, %indvars.iv
  %48 = getelementptr inbounds nuw i8, ptr %31, i64 %47
  store float %46, ptr %48, align 4, !tbaa !21
  %indvars.iv.next = add nuw nsw i64 %indvars.iv, 1
  %49 = load i32, ptr %26, align 8, !tbaa !3
  %50 = sext i32 %49 to i64
  %51 = icmp slt i64 %indvars.iv.next, %50
  br i1 %51, label %38, label %.loopexit36, !llvm.loop !104

.loopexit36:                                      ; preds = %38, %.preheader35, %_ZNK2cv7MatExprcvNS_3MatEEv.exit31
  %52 = add nsw i32 %.sroa.0.0.extract.trunc, -1
  %.not24 = icmp eq i32 %52, 0
  br i1 %.not24, label %.loopexit, label %.preheader

.preheader:                                       ; preds = %.loopexit36
  %53 = getelementptr inbounds nuw i8, ptr %5, i64 12
  %54 = load i32, ptr %53, align 4, !tbaa !16
  %55 = icmp sgt i32 %54, 0
  br i1 %55, label %.lr.ph39, label %.loopexit

.lr.ph39:                                         ; preds = %.preheader
  %56 = sitofp i32 %52 to double
  %57 = getelementptr inbounds nuw i8, ptr %5, i64 16
  %58 = load ptr, ptr %57, align 8, !tbaa !17
  br label %59

59:                                               ; preds = %.lr.ph39, %59
  %indvars.iv41 = phi i64 [ 0, %.lr.ph39 ], [ %indvars.iv.next42, %59 ]
  %60 = trunc nuw nsw i64 %indvars.iv41 to i32
  %61 = uitofp nneg i32 %60 to double
  %62 = fmul double %61, 0x401921FB54442D18
  %63 = fdiv double %62, %56
  %64 = call double @cos(double noundef %63) #21, !tbaa !40
  %65 = fsub double 1.000000e+00, %64
  %66 = fmul double %65, 5.000000e-01
  %67 = fptrunc double %66 to float
  %68 = getelementptr inbounds nuw float, ptr %58, i64 %indvars.iv41
  store float %67, ptr %68, align 4, !tbaa !21
  %indvars.iv.next42 = add nuw nsw i64 %indvars.iv41, 1
  %69 = load i32, ptr %53, align 4, !tbaa !16
  %70 = sext i32 %69 to i64
  %71 = icmp slt i64 %indvars.iv.next42, %70
  br i1 %71, label %59, label %.loopexit, !llvm.loop !105

.loopexit:                                        ; preds = %59, %.preheader, %.loopexit36
  call void @llvm.lifetime.start.p0(i64 352, ptr nonnull %7) #21
  invoke void @_ZN2cvmlERKNS_3MatES2_(ptr dead_on_unwind nonnull writable sret(%"class.cv::MatExpr") align 8 %7, ptr noundef nonnull align 8 dereferenceable(96) %3, ptr noundef nonnull align 8 dereferenceable(96) %5)
          to label %72 unwind label %81

72:                                               ; preds = %.loopexit
  call void @_ZN2cv3MatC1Ev(ptr noundef nonnull align 8 dereferenceable(96) %0) #21
  %73 = load ptr, ptr %7, align 8, !tbaa !26, !noalias !106
  %74 = load ptr, ptr %73, align 8, !tbaa !36
  %75 = getelementptr inbounds nuw i8, ptr %74, i64 24
  %76 = load ptr, ptr %75, align 8
  invoke void %76(ptr noundef nonnull align 8 dereferenceable(8) %73, ptr noundef nonnull align 8 dereferenceable(352) %7, ptr noundef nonnull align 8 dereferenceable(96) %0, i32 noundef -1)
          to label %_ZNK2cv7MatExprcvNS_3MatEEv.exit34 unwind label %.body32

.body32:                                          ; preds = %72
  %77 = landingpad { ptr, i32 }
          cleanup
  call void @_ZN2cv3MatD1Ev(ptr noundef nonnull align 8 dereferenceable(96) %0) #21
  call void @_ZN2cv7MatExprD2Ev(ptr noundef nonnull align 8 dereferenceable(352) %7) #21
  br label %83

_ZNK2cv7MatExprcvNS_3MatEEv.exit34:               ; preds = %72
  %78 = getelementptr inbounds nuw i8, ptr %7, i64 208
  call void @_ZN2cv3MatD1Ev(ptr noundef nonnull align 8 dereferenceable(96) %78) #21
  %79 = getelementptr inbounds nuw i8, ptr %7, i64 112
  call void @_ZN2cv3MatD1Ev(ptr noundef nonnull align 8 dereferenceable(96) %79) #21
  %80 = getelementptr inbounds nuw i8, ptr %7, i64 16
  call void @_ZN2cv3MatD1Ev(ptr noundef nonnull align 8 dereferenceable(96) %80) #21
  call void @llvm.lifetime.end.p0(i64 352, ptr nonnull %7) #21
  call void @_ZN2cv3MatD1Ev(ptr noundef nonnull align 8 dereferenceable(96) %5) #21
  call void @llvm.lifetime.end.p0(i64 96, ptr nonnull %5) #21
  call void @_ZN2cv3MatD1Ev(ptr noundef nonnull align 8 dereferenceable(96) %3) #21
  call void @llvm.lifetime.end.p0(i64 96, ptr nonnull %3) #21
  ret void

81:                                               ; preds = %.loopexit
  %82 = landingpad { ptr, i32 }
          cleanup
  br label %83

83:                                               ; preds = %.body32, %81
  %.pn25 = phi { ptr, i32 } [ %77, %.body32 ], [ %82, %81 ]
  call void @llvm.lifetime.end.p0(i64 352, ptr nonnull %7) #21
  call void @_ZN2cv3MatD1Ev(ptr noundef nonnull align 8 dereferenceable(96) %5) #21
  br label %84

84:                                               ; preds = %83, %37
  %.pn25.pn = phi { ptr, i32 } [ %.pn25, %83 ], [ %.pn, %37 ]
  call void @llvm.lifetime.end.p0(i64 96, ptr nonnull %5) #21
  call void @_ZN2cv3MatD1Ev(ptr noundef nonnull align 8 dereferenceable(96) %3) #21
  br label %85

85:                                               ; preds = %84, %.body
  %.pn25.pn.pn = phi { ptr, i32 } [ %.pn25.pn, %84 ], [ %12, %.body ]
  call void @llvm.lifetime.end.p0(i64 96, ptr nonnull %3) #21
  resume { ptr, i32 } %.pn25.pn.pn
}